; Function Attrs: mustprogress uwtable
define hidden void @_ZN7datalog3bmc21get_rules_along_traceER10ref_vectorINS_4ruleENS_12rule_managerEE(ptr noundef nonnull readonly align 8 captures(none) dereferenceable(368) %0, ptr noundef nonnull align 8 dereferenceable(16) %1) unnamed_addr #3 align 2 {
  %3 = getelementptr inbounds nuw i8, ptr %0, i64 360
  %4 = getelementptr inbounds nuw i8, ptr %1, i64 8
  br label %5

5:                                                ; preds = %_ZN15ref_vector_coreIN7datalog4ruleE19ref_manager_wrapperIS1_NS0_12rule_managerEEE9push_backEPS1_.exit.i, %2
  %indvars.iv.i = phi i64 [ %indvars.iv.next.i, %_ZN15ref_vector_coreIN7datalog4ruleE19ref_manager_wrapperIS1_NS0_12rule_managerEEE9push_backEPS1_.exit.i ], [ 0, %2 ]
  %6 = load ptr, ptr %3, align 8, !tbaa !224
  %7 = icmp eq ptr %6, null
  br i1 %7, label %_ZNK15ref_vector_coreIN7datalog4ruleE19ref_manager_wrapperIS1_NS0_12rule_managerEEE4sizeEv.exit.i, label %8

8:                                                ; preds = %5
  %9 = getelementptr inbounds i8, ptr %6, i64 -4
  %10 = load i32, ptr %9, align 4, !tbaa !242
  %11 = zext i32 %10 to i64
  br label %_ZNK15ref_vector_coreIN7datalog4ruleE19ref_manager_wrapperIS1_NS0_12rule_managerEEE4sizeEv.exit.i

_ZNK15ref_vector_coreIN7datalog4ruleE19ref_manager_wrapperIS1_NS0_12rule_managerEEE4sizeEv.exit.i: ; preds = %8, %5
  %.0.i.i.i = phi i64 [ %11, %8 ], [ 0, %5 ]
  %12 = icmp samesign ult i64 %indvars.iv.i, %.0.i.i.i
  br i1 %12, label %13, label %_ZN15ref_vector_coreIN7datalog4ruleE19ref_manager_wrapperIS1_NS0_12rule_managerEEE6appendERKS5_.exit

13:                                               ; preds = %_ZNK15ref_vector_coreIN7datalog4ruleE19ref_manager_wrapperIS1_NS0_12rule_managerEEE4sizeEv.exit.i
  %14 = getelementptr inbounds nuw ptr, ptr %6, i64 %indvars.iv.i
  %15 = load ptr, ptr %14, align 8, !tbaa !244
  %16 = load ptr, ptr %1, align 8, !tbaa !281
  tail call void @_ZN7datalog12rule_manager7inc_refEPNS_4ruleE(ptr noundef nonnull align 8 dereferenceable(1104) %16, ptr noundef %15)
  %17 = load ptr, ptr %4, align 8, !tbaa !224
  %18 = icmp eq ptr %17, null
  br i1 %18, label %25, label %19

19:                                               ; preds = %13
  %20 = getelementptr inbounds i8, ptr %17, i64 -4
  %21 = load i32, ptr %20, align 4, !tbaa !242
  %22 = getelementptr inbounds i8, ptr %17, i64 -8
  %23 = load i32, ptr %22, align 4, !tbaa !242
  %24 = icmp eq i32 %21, %23
  br i1 %24, label %25, label %_ZN15ref_vector_coreIN7datalog4ruleE19ref_manager_wrapperIS1_NS0_12rule_managerEEE9push_backEPS1_.exit.i

25:                                               ; preds = %19, %13
  tail call void @_ZN6vectorIPN7datalog4ruleELb0EjE13expand_vectorEv(ptr noundef nonnull align 8 dereferenceable(8) %4)
  %.pre.i.i.i = load ptr, ptr %4, align 8, !tbaa !224
  %.phi.trans.insert.i.i.i = getelementptr inbounds i8, ptr %.pre.i.i.i, i64 -4
  %.pre2.i.i.i = load i32, ptr %.phi.trans.insert.i.i.i, align 4, !tbaa !242
  br label %_ZN15ref_vector_coreIN7datalog4ruleE19ref_manager_wrapperIS1_NS0_12rule_managerEEE9push_backEPS1_.exit.i

_ZN15ref_vector_coreIN7datalog4ruleE19ref_manager_wrapperIS1_NS0_12rule_managerEEE9push_backEPS1_.exit.i: ; preds = %25, %19
  %26 = phi i32 [ %.pre2.i.i.i, %25 ], [ %21, %19 ]
  %27 = phi ptr [ %.pre.i.i.i, %25 ], [ %17, %19 ]
  %28 = getelementptr inbounds i8, ptr %27, i64 -4
  %29 = zext i32 %26 to i64
  %30 = getelementptr inbounds nuw ptr, ptr %27, i64 %29
  store ptr %15, ptr %30, align 8, !tbaa !244
  %31 = add i32 %26, 1
  store i32 %31, ptr %28, align 4, !tbaa !242
  %indvars.iv.next.i = add nuw nsw i64 %indvars.iv.i, 1
  br label %5, !llvm.loop !282

_ZN15ref_vector_coreIN7datalog4ruleE19ref_manager_wrapperIS1_NS0_12rule_managerEEE6appendERKS5_.exit: ; preds = %_ZNK15ref_vector_coreIN7datalog4ruleE19ref_manager_wrapperIS1_NS0_12rule_managerEEE4sizeEv.exit.i
  ret void
}